target datalayout = "e-m:e-p270:32:32-p271:32:32-p272:64:64-i64:64-i128:128-f80:128-n8:16:32:64-S128"
target triple = "x86_64-pc-linux-gnu"

%struct.x509_attributes_st = type { ptr, i32, %union.anon }
%union.anon = type { ptr }
%struct.asn1_type_st = type { i32, %union.anon.0 }
%union.anon.0 = type { ptr }

@.str = private unnamed_addr constant [126 x i8] c"generated/home/dtcxzyw/WorkSpace/Projects/compilers/llvm-opt-benchmark/bench/libquic/libquic/boringssl/crypto/x509/x509_att.c\00", align 1

; Function Attrs: nounwind uwtable
define hidden i32 @X509_ATTRIBUTE_count(ptr noundef %0) #0 {
  %2 = alloca i32, align 4
  %3 = alloca ptr, align 8
  store ptr %0, ptr %3, align 8, !tbaa !15
  %4 = load ptr, ptr %3, align 8, !tbaa !15
  %5 = getelementptr inbounds nuw %struct.x509_attributes_st, ptr %4, i32 0, i32 1
  %6 = load i32, ptr %5, align 8, !tbaa !28
  %7 = icmp ne i32 %6, 0
  br i1 %7, label %14, label %8

8:                                                ; preds = %1
  %9 = load ptr, ptr %3, align 8, !tbaa !15
  %10 = getelementptr inbounds nuw %struct.x509_attributes_st, ptr %9, i32 0, i32 2
  %11 = load ptr, ptr %10, align 8, !tbaa !29
  %12 = call i64 @sk_num(ptr noundef %11)
  %13 = trunc i64 %12 to i32
  store i32 %13, ptr %2, align 4
  br label %21

14:                                               ; preds = %1
  %15 = load ptr, ptr %3, align 8, !tbaa !15
  %16 = getelementptr inbounds nuw %struct.x509_attributes_st, ptr %15, i32 0, i32 2
  %17 = load ptr, ptr %16, align 8, !tbaa !29
  %18 = icmp ne ptr %17, null
  br i1 %18, label %19, label %20

19:                                               ; preds = %14
  store i32 1, ptr %2, align 4
  br label %21

20:                                               ; preds = %14
  store i32 0, ptr %2, align 4
  br label %21

21:                                               ; preds = %20, %19, %8
  %22 = load i32, ptr %2, align 4
  ret i32 %22
}

; Function Attrs: nounwind uwtable
define hidden ptr @X509_ATTRIBUTE_get0_type(ptr noundef %0, i32 noundef %1) #0 {
  %3 = alloca ptr, align 8
  %4 = alloca ptr, align 8
  %5 = alloca i32, align 4
  store ptr %0, ptr %4, align 8, !tbaa !15
  store i32 %1, ptr %5, align 4, !tbaa !11
  %6 = load ptr, ptr %4, align 8, !tbaa !15
  %7 = icmp eq ptr %6, null
  br i1 %7, label %8, label %9

8:                                                ; preds = %2
  store ptr null, ptr %3, align 8
  br label %31

9:                                                ; preds = %2
  %10 = load i32, ptr %5, align 4, !tbaa !11
  %11 = load ptr, ptr %4, align 8, !tbaa !15
  %12 = call i32 @X509_ATTRIBUTE_count(ptr noundef %11)
  %13 = icmp sge i32 %10, %12
  br i1 %13, label %14, label %15

14:                                               ; preds = %9
  store ptr null, ptr %3, align 8
  br label %31

15:                                               ; preds = %9
  %16 = load ptr, ptr %4, align 8, !tbaa !15
  %17 = getelementptr inbounds nuw %struct.x509_attributes_st, ptr %16, i32 0, i32 1
  %18 = load i32, ptr %17, align 8, !tbaa !28
  %19 = icmp ne i32 %18, 0
  br i1 %19, label %27, label %20

20:                                               ; preds = %15
  %21 = load ptr, ptr %4, align 8, !tbaa !15
  %22 = getelementptr inbounds nuw %struct.x509_attributes_st, ptr %21, i32 0, i32 2
  %23 = load ptr, ptr %22, align 8, !tbaa !29
  %24 = load i32, ptr %5, align 4, !tbaa !11
  %25 = sext i32 %24 to i64
  %26 = call ptr @sk_value(ptr noundef %23, i64 noundef %25)
  store ptr %26, ptr %3, align 8
  br label %31

27:                                               ; preds = %15
  %28 = load ptr, ptr %4, align 8, !tbaa !15
  %29 = getelementptr inbounds nuw %struct.x509_attributes_st, ptr %28, i32 0, i32 2
  %30 = load ptr, ptr %29, align 8, !tbaa !29
  store ptr %30, ptr %3, align 8
  br label %31

31:                                               ; preds = %27, %20, %14, %8
  %32 = load ptr, ptr %3, align 8
  ret ptr %32
}

; Function Attrs: nounwind uwtable
define hidden ptr @X509_ATTRIBUTE_get0_data(ptr noundef %0, i32 noundef %1, i32 noundef %2, ptr noundef %3) #0 {
  %5 = alloca ptr, align 8
  %6 = alloca ptr, align 8
  %7 = alloca i32, align 4
  %8 = alloca i32, align 4
  %9 = alloca ptr, align 8
  %10 = alloca ptr, align 8
  %11 = alloca i32, align 4
  store ptr %0, ptr %6, align 8, !tbaa !15
  store i32 %1, ptr %7, align 4, !tbaa !11
  store i32 %2, ptr %8, align 4, !tbaa !11
  store ptr %3, ptr %9, align 8, !tbaa !27
  call void @llvm.lifetime.start.p0(i64 8, ptr %10) #3
  %12 = load ptr, ptr %6, align 8, !tbaa !15
  %13 = load i32, ptr %7, align 4, !tbaa !11
  %14 = call ptr @X509_ATTRIBUTE_get0_type(ptr noundef %12, i32 noundef %13)
  store ptr %14, ptr %10, align 8, !tbaa !30
  %15 = load ptr, ptr %10, align 8, !tbaa !30
  %16 = icmp ne ptr %15, null
  br i1 %16, label %18, label %17

17:                                               ; preds = %4
  store ptr null, ptr %5, align 8
  store i32 1, ptr %11, align 4
  br label %28

18:                                               ; preds = %4
  %19 = load i32, ptr %8, align 4, !tbaa !11
  %20 = load ptr, ptr %10, align 8, !tbaa !30
  %21 = call i32 @ASN1_TYPE_get(ptr noundef %20)
  %22 = icmp ne i32 %19, %21
  br i1 %22, label %23, label %24

23:                                               ; preds = %18
  call void @ERR_put_error(i32 noundef 11, i32 noundef 0, i32 noundef 134, ptr noundef @.str, i32 noundef 359)
  store ptr null, ptr %5, align 8
  store i32 1, ptr %11, align 4
  br label %28

24:                                               ; preds = %18
  %25 = load ptr, ptr %10, align 8, !tbaa !30
  %26 = getelementptr inbounds nuw %struct.asn1_type_st, ptr %25, i32 0, i32 1
  %27 = load ptr, ptr %26, align 8, !tbaa !29
  store ptr %27, ptr %5, align 8
  store i32 1, ptr %11, align 4
  br label %28

28:                                               ; preds = %24, %23, %17
  call void @llvm.lifetime.end.p0(i64 8, ptr %10) #3
  %29 = load ptr, ptr %5, align 8
  ret ptr %29
}