; Function Attrs: nounwind uwtable
define hidden ptr @X509_ATTRIBUTE_get0_data(ptr noundef readonly captures(address_is_null) %0, i32 noundef %1, i32 noundef %2, ptr noundef readnone captures(none) %3) local_unnamed_addr #0 {
  %5 = icmp eq ptr %0, null
  br i1 %5, label %X509_ATTRIBUTE_get0_type.exit.thread, label %6

6:                                                ; preds = %4
  %7 = getelementptr inbounds nuw i8, ptr %0, i64 8
  %8 = load i32, ptr %7, align 8, !tbaa !19
  %.not.i.i = icmp eq i32 %8, 0
  %9 = getelementptr inbounds nuw i8, ptr %0, i64 16
  %10 = load ptr, ptr %9, align 8, !tbaa !20
  br i1 %.not.i.i, label %11, label %14

11:                                               ; preds = %6
  %12 = tail call i64 @sk_num(ptr noundef %10) #4
  %13 = trunc i64 %12 to i32
  br label %X509_ATTRIBUTE_count.exit.i

14:                                               ; preds = %6
  %.not3.i.i = icmp ne ptr %10, null
  %..i.i = zext i1 %.not3.i.i to i32
  br label %X509_ATTRIBUTE_count.exit.i

X509_ATTRIBUTE_count.exit.i:                      ; preds = %14, %11
  %.0.i.i = phi i32 [ %13, %11 ], [ %..i.i, %14 ]
  %.not.i = icmp slt i32 %1, %.0.i.i
  br i1 %.not.i, label %15, label %X509_ATTRIBUTE_get0_type.exit.thread

15:                                               ; preds = %X509_ATTRIBUTE_count.exit.i
  %16 = load i32, ptr %7, align 8, !tbaa !19
  %.not9.i = icmp eq i32 %16, 0
  %17 = load ptr, ptr %9, align 8, !tbaa !20
  br i1 %.not9.i, label %18, label %X509_ATTRIBUTE_get0_type.exit

18:                                               ; preds = %15
  %19 = sext i32 %1 to i64
  %20 = tail call ptr @sk_value(ptr noundef %17, i64 noundef %19) #4
  br label %X509_ATTRIBUTE_get0_type.exit

X509_ATTRIBUTE_get0_type.exit:                    ; preds = %15, %18
  %.0.i = phi ptr [ %20, %18 ], [ %17, %15 ]
  %.not = icmp eq ptr %.0.i, null
  br i1 %.not, label %X509_ATTRIBUTE_get0_type.exit.thread, label %21

21:                                               ; preds = %X509_ATTRIBUTE_get0_type.exit
  %22 = tail call i32 @ASN1_TYPE_get(ptr noundef nonnull %.0.i) #4
  %.not7 = icmp eq i32 %2, %22
  br i1 %.not7, label %24, label %23

23:                                               ; preds = %21
  tail call void @ERR_put_error(i32 noundef 11, i32 noundef 0, i32 noundef 134, ptr noundef nonnull @.str, i32 noundef 359) #4
  br label %X509_ATTRIBUTE_get0_type.exit.thread

24:                                               ; preds = %21
  %25 = getelementptr inbounds nuw i8, ptr %.0.i, i64 8
  %26 = load ptr, ptr %25, align 8, !tbaa !20
  br label %X509_ATTRIBUTE_get0_type.exit.thread

X509_ATTRIBUTE_get0_type.exit.thread:             ; preds = %X509_ATTRIBUTE_count.exit.i, %4, %X509_ATTRIBUTE_get0_type.exit, %24, %23
  %.0 = phi ptr [ null, %23 ], [ %26, %24 ], [ null, %X509_ATTRIBUTE_get0_type.exit ], [ null, %4 ], [ null, %X509_ATTRIBUTE_count.exit.i ]
  ret ptr %.0
}